target datalayout = "e-m:e-p270:32:32-p271:32:32-p272:64:64-i64:64-i128:128-f80:128-n8:16:32:64-S128"
target triple = "x86_64-pc-linux-gnu"

@.str.2 = private unnamed_addr constant [32 x i8] c"../openssl/test/dtls_mtu_test.c\00", align 1
@.str.3 = private unnamed_addr constant [33 x i8] c"ctx = SSL_CTX_new(DTLS_method())\00", align 1
@.str.13 = private unnamed_addr constant [63 x i8] c"create_ssl_objects(ctx, ctx, &srvr_ssl, &clnt_ssl, NULL, NULL)\00", align 1
@.str.31 = private unnamed_addr constant [28 x i8] c"SSL_CTX_set_dh_auto(ctx, 1)\00", align 1
@.str.32 = private unnamed_addr constant [34 x i8] c"DTLS_set_link_mtu(srvr_ssl, 1500)\00", align 1
@.str.33 = private unnamed_addr constant [58 x i8] c"create_ssl_connection(srvr_ssl, clnt_ssl, SSL_ERROR_NONE)\00", align 1

; Function Attrs: nounwind uwtable
define internal i32 @test_server_mtu_larger_than_max_fragment_length() #0 {
  %1 = alloca ptr, align 8
  %2 = alloca ptr, align 8
  %3 = alloca ptr, align 8
  %4 = alloca i32, align 4
  call void @llvm.lifetime.start.p0(i64 8, ptr %1) #6
  store ptr null, ptr %1, align 8, !tbaa !4
  call void @llvm.lifetime.start.p0(i64 8, ptr %2) #6
  store ptr null, ptr %2, align 8, !tbaa !19
  call void @llvm.lifetime.start.p0(i64 8, ptr %3) #6
  store ptr null, ptr %3, align 8, !tbaa !19
  call void @llvm.lifetime.start.p0(i64 4, ptr %4) #6
  store i32 0, ptr %4, align 4, !tbaa !9
  %5 = call ptr @DTLS_method()
  %6 = call ptr @SSL_CTX_new(ptr noundef %5)
  store ptr %6, ptr %1, align 8, !tbaa !4
  %7 = call i32 @test_ptr(ptr noundef @.str.2, i32 noundef 201, ptr noundef @.str.3, ptr noundef %6)
  %8 = icmp ne i32 %7, 0
  br i1 %8, label %10, label %9

9:                                                ; preds = %0
  br label %51

10:                                               ; preds = %0
  %11 = load ptr, ptr %1, align 8, !tbaa !4
  call void @SSL_CTX_set_psk_server_callback(ptr noundef %11, ptr noundef @srvr_psk_callback)
  %12 = load ptr, ptr %1, align 8, !tbaa !4
  call void @SSL_CTX_set_psk_client_callback(ptr noundef %12, ptr noundef @clnt_psk_callback)
  %13 = load ptr, ptr %1, align 8, !tbaa !4
  %14 = call i64 @SSL_CTX_ctrl(ptr noundef %13, i32 noundef 118, i64 noundef 1, ptr noundef null)
  %15 = icmp ne i64 %14, 0
  %16 = zext i1 %15 to i32
  %17 = call i32 @test_true(ptr noundef @.str.2, i32 noundef 208, ptr noundef @.str.31, i32 noundef %16)
  %18 = icmp ne i32 %17, 0
  br i1 %18, label %20, label %19

19:                                               ; preds = %10
  br label %51

20:                                               ; preds = %10
  %21 = load ptr, ptr %1, align 8, !tbaa !4
  %22 = load ptr, ptr %1, align 8, !tbaa !4
  %23 = call i32 @create_ssl_objects(ptr noundef %21, ptr noundef %22, ptr noundef %2, ptr noundef %3, ptr noundef null, ptr noundef null)
  %24 = icmp ne i32 %23, 0
  %25 = zext i1 %24 to i32
  %26 = call i32 @test_true(ptr noundef @.str.2, i32 noundef 213, ptr noundef @.str.13, i32 noundef %25)
  %27 = icmp ne i32 %26, 0
  br i1 %27, label %29, label %28

28:                                               ; preds = %20
  br label %51

29:                                               ; preds = %20
  %30 = load ptr, ptr %2, align 8, !tbaa !19
  %31 = call i64 @SSL_set_options(ptr noundef %30, i64 noundef 4096)
  %32 = load ptr, ptr %2, align 8, !tbaa !19
  %33 = call i64 @SSL_ctrl(ptr noundef %32, i32 noundef 120, i64 noundef 1500, ptr noundef null)
  %34 = icmp ne i64 %33, 0
  %35 = zext i1 %34 to i32
  %36 = call i32 @test_true(ptr noundef @.str.2, i32 noundef 217, ptr noundef @.str.32, i32 noundef %35)
  %37 = icmp ne i32 %36, 0
  br i1 %37, label %39, label %38

38:                                               ; preds = %29
  br label %51

39:                                               ; preds = %29
  %40 = load ptr, ptr %3, align 8, !tbaa !19
  %41 = call i32 @SSL_set_tlsext_max_fragment_length(ptr noundef %40, i8 noundef zeroext 1)
  %42 = load ptr, ptr %2, align 8, !tbaa !19
  %43 = load ptr, ptr %3, align 8, !tbaa !19
  %44 = call i32 @create_ssl_connection(ptr noundef %42, ptr noundef %43, i32 noundef 0)
  %45 = icmp ne i32 %44, 0
  %46 = zext i1 %45 to i32
  %47 = call i32 @test_true(ptr noundef @.str.2, i32 noundef 224, ptr noundef @.str.33, i32 noundef %46)
  %48 = icmp ne i32 %47, 0
  br i1 %48, label %50, label %49

49:                                               ; preds = %39
  br label %51

50:                                               ; preds = %39
  store i32 1, ptr %4, align 4, !tbaa !9
  br label %51

51:                                               ; preds = %50, %49, %38, %28, %19, %9
  %52 = load ptr, ptr %3, align 8, !tbaa !19
  call void @SSL_free(ptr noundef %52)
  %53 = load ptr, ptr %2, align 8, !tbaa !19
  call void @SSL_free(ptr noundef %53)
  %54 = load ptr, ptr %1, align 8, !tbaa !4
  call void @SSL_CTX_free(ptr noundef %54)
  %55 = load i32, ptr %4, align 4, !tbaa !9
  call void @llvm.lifetime.end.p0(i64 4, ptr %4) #6
  call void @llvm.lifetime.end.p0(i64 8, ptr %3) #6
  call void @llvm.lifetime.end.p0(i64 8, ptr %2) #6
  call void @llvm.lifetime.end.p0(i64 8, ptr %1) #6
  ret i32 %55
}