; Function Attrs: nounwind uwtable
define internal range(i32 0, 2) i32 @test_server_mtu_larger_than_max_fragment_length() #0 {
  %1 = alloca ptr, align 8
  %2 = alloca ptr, align 8
  call void @llvm.lifetime.start.p0(i64 8, ptr nonnull %1) #7
  store ptr null, ptr %1, align 8, !tbaa !6
  call void @llvm.lifetime.start.p0(i64 8, ptr nonnull %2) #7
  store ptr null, ptr %2, align 8, !tbaa !6
  %3 = tail call ptr @DTLS_method() #7
  %4 = tail call ptr @SSL_CTX_new(ptr noundef %3) #7
  %5 = tail call i32 @test_ptr(ptr noundef nonnull @.str.2, i32 noundef 201, ptr noundef nonnull @.str.3, ptr noundef %4) #7
  %.not = icmp eq i32 %5, 0
  br i1 %.not, label %33, label %6

6:                                                ; preds = %0
  tail call void @SSL_CTX_set_psk_server_callback(ptr noundef %4, ptr noundef nonnull @srvr_psk_callback) #7
  tail call void @SSL_CTX_set_psk_client_callback(ptr noundef %4, ptr noundef nonnull @clnt_psk_callback) #7
  %7 = tail call i64 @SSL_CTX_ctrl(ptr noundef %4, i32 noundef 118, i64 noundef 1, ptr noundef null) #7
  %8 = icmp ne i64 %7, 0
  %9 = zext i1 %8 to i32
  %10 = tail call i32 @test_true(ptr noundef nonnull @.str.2, i32 noundef 208, ptr noundef nonnull @.str.31, i32 noundef %9) #7
  %.not6 = icmp eq i32 %10, 0
  br i1 %.not6, label %33, label %11

11:                                               ; preds = %6
  %12 = call i32 @create_ssl_objects(ptr noundef %4, ptr noundef %4, ptr noundef nonnull %1, ptr noundef nonnull %2, ptr noundef null, ptr noundef null) #7
  %13 = icmp ne i32 %12, 0
  %14 = zext i1 %13 to i32
  %15 = call i32 @test_true(ptr noundef nonnull @.str.2, i32 noundef 213, ptr noundef nonnull @.str.13, i32 noundef %14) #7
  %.not7 = icmp eq i32 %15, 0
  br i1 %.not7, label %33, label %16

16:                                               ; preds = %11
  %17 = load ptr, ptr %1, align 8, !tbaa !6
  %18 = call i64 @SSL_set_options(ptr noundef %17, i64 noundef 4096) #7
  %19 = load ptr, ptr %1, align 8, !tbaa !6
  %20 = call i64 @SSL_ctrl(ptr noundef %19, i32 noundef 120, i64 noundef 1500, ptr noundef null) #7
  %21 = icmp ne i64 %20, 0
  %22 = zext i1 %21 to i32
  %23 = call i32 @test_true(ptr noundef nonnull @.str.2, i32 noundef 217, ptr noundef nonnull @.str.32, i32 noundef %22) #7
  %.not8 = icmp eq i32 %23, 0
  br i1 %.not8, label %33, label %24

24:                                               ; preds = %16
  %25 = load ptr, ptr %2, align 8, !tbaa !6
  %26 = call i32 @SSL_set_tlsext_max_fragment_length(ptr noundef %25, i8 noundef zeroext 1) #7
  %27 = load ptr, ptr %1, align 8, !tbaa !6
  %28 = load ptr, ptr %2, align 8, !tbaa !6
  %29 = call i32 @create_ssl_connection(ptr noundef %27, ptr noundef %28, i32 noundef 0) #7
  %30 = icmp ne i32 %29, 0
  %31 = zext i1 %30 to i32
  %32 = call i32 @test_true(ptr noundef nonnull @.str.2, i32 noundef 224, ptr noundef nonnull @.str.33, i32 noundef %31) #7
  %.not9 = icmp ne i32 %32, 0
  %spec.select = zext i1 %.not9 to i32
  br label %33

33:                                               ; preds = %24, %16, %11, %6, %0
  %.0 = phi i32 [ 0, %16 ], [ 0, %11 ], [ 0, %6 ], [ 0, %0 ], [ %spec.select, %24 ]
  %34 = load ptr, ptr %2, align 8, !tbaa !6
  call void @SSL_free(ptr noundef %34) #7
  %35 = load ptr, ptr %1, align 8, !tbaa !6
  call void @SSL_free(ptr noundef %35) #7
  call void @SSL_CTX_free(ptr noundef %4) #7
  call void @llvm.lifetime.end.p0(i64 8, ptr nonnull %2) #7
  call void @llvm.lifetime.end.p0(i64 8, ptr nonnull %1) #7
  ret i32 %.0
}